Certificate:
    Data:
        Version: 3 (0x2)
        Serial Number:
            be:ff:e9:ec:16:7d:33:10
    Signature Algorithm: sha256WithRSAEncryption
        Issuer: CN=kickbox-api-pre-prod.scapp.io
        Validity
            Not Before: Oct 14 15:17:38 2019 GMT
            Not After : Oct 14 15:17:38 2022 GMT
        Subject: CN=kickbox-api-pre-prod.scapp.io
        Subject Public Key Info:
            Public Key Algorithm: rsaEncryption
                Public-Key: (3072 bit)
                Modulus:
                    00:a9:26:2c:c4:a0:aa:95:8b:f2:25:1f:69:a3:7a:
                    e9:d3:d4:8b:06:dc:7e:7e:49:06:f1:ee:29:89:66:
                    13:08:6e:7f:c1:9d:d3:10:b1:04:6f:b7:44:c0:9a:
                    28:0c:05:d2:aa:51:d3:84:c3:16:72:a2:63:76:bb:
                    b8:6a:80:f3:0e:6c:5b:60:35:c5:6e:09:1b:c6:96:
                    ad:0a:bf:fc:e4:1e:a9:fa:a5:c6:12:79:74:d5:79:
                    13:8a:30:cb:17:9e:5e:51:32:86:3b:61:31:26:87:
                    f9:bb:50:90:b8:70:36:cd:89:4c:76:59:20:6d:7b:
                    60:0d:dd:2e:f2:b5:d7:1d:70:a7:b7:5a:25:01:fd:
                    5c:33:47:7a:81:2c:b5:d0:92:b1:0b:51:83:ce:8f:
                    fb:d0:47:1f:9d:a9:11:84:e9:6f:27:0b:d6:f9:0f:
                    be:41:0b:a5:16:ed:5c:f9:90:58:36:07:6d:79:1a:
                    a9:8b:bb:fb:3c:80:c0:c4:0f:dd:34:75:a2:a1:3f:
                    3f:09:b4:e9:94:37:9e:98:f3:e6:30:6a:cc:8a:46:
                    28:86:47:80:fe:dd:f8:e2:b8:28:de:10:cf:01:58:
                    d8:37:24:bb:55:04:c7:83:39:0d:b5:36:ac:ca:5d:
                    fa:f3:e0:70:66:66:1a:ab:42:4e:9d:d6:56:1c:80:
                    3f:7c:b0:63:15:9b:20:95:19:90:e9:95:0a:02:85:
                    d7:85:25:71:7e:69:1b:36:23:36:ee:81:f6:17:23:
                    48:04:8e:cc:f7:5f:eb:41:fb:87:9c:2a:9e:b5:f2:
                    78:b0:69:e3:19:e3:ad:60:65:9c:83:5a:10:5a:11:
                    c2:d3:d2:88:17:61:4c:7c:98:e8:ae:8c:d8:ed:4b:
                    eb:7a:d5:e9:17:ae:1e:52:b2:8d:24:75:ea:90:36:
                    fb:41:ce:30:bb:b5:b2:0c:59:aa:f4:00:d5:c6:6e:
                    f5:a3:a6:9d:14:0b:0f:6a:7f:5e:78:2e:e5:b9:af:
                    bd:07:2f:34:1f:63:a8:35:64:87
                Exponent: 65537 (0x10001)
        X509v3 extensions:
            X509v3 Subject Alternative Name:
                DNS:kickbox-api-pre-prod.scapp.io, URI:https://kickbox-api-pre-prod.scapp.io
            X509v3 Subject Key Identifier:
                C8:86:6A:53:2B:FA:96:64:BA:4B:25:78:A2:9F:FD:34:64:E8:75:E2
    Signature Algorithm: sha256WithRSAEncryption
         a1:0c:9b:9d:9b:6c:e2:ff:66:a4:07:bd:87:78:45:6b:4c:3b:
         f6:b3:4e:2a:e1:d6:e7:4e:ca:d4:f6:4a:82:9f:10:49:6d:2f:
         57:e6:04:42:ad:d1:82:fe:89:ff:38:50:85:2d:5a:a7:1a:ea:
         a1:cb:b4:92:2b:2d:18:40:ac:87:42:5e:29:6c:58:61:2d:2f:
         e6:4a:29:74:91:3c:c3:6b:24:39:b0:0d:a5:0c:8f:59:b6:7b:
         52:d0:1d:c0:2a:71:a5:3c:25:6c:e5:82:47:49:e3:25:f7:a7:
         94:4c:f1:11:e8:51:ce:99:01:c1:fd:85:f2:44:82:02:ad:53:
         1a:67:6f:d0:f7:23:ad:f8:c3:62:0e:d8:c8:59:ca:5e:f4:7a:
         a0:3d:22:eb:21:cb:27:f7:78:de:eb:8e:53:3f:6c:ed:bd:ba:
         31:b6:d1:9f:27:2a:da:43:ed:3a:a7:e8:0f:2f:ff:0a:23:46:
         1f:11:96:fe:c6:c2:ad:eb:cd:5f:7c:22:58:a3:43:5d:38:5b:
         20:6d:2d:ef:59:75:57:3f:3c:fd:f8:c4:54:3e:9f:97:d4:d2:
         d4:64:1d:0c:d3:44:07:cf:f0:5b:2c:6b:73:4a:11:03:87:a2:
         08:b7:0c:30:87:b5:5c:ec:c3:41:eb:5f:4a:dd:2b:67:e3:63:
         a6:b5:8a:b2:26:71:b4:ab:24:87:68:d8:9b:78:87:8c:ac:74:
         30:14:6b:c2:0c:f0:77:fc:cb:0d:89:d3:1a:5f:48:dd:41:48:
         4a:e7:c5:35:2f:05:3b:f2:1b:04:64:ae:0e:ed:b4:73:4b:aa:
         6d:0f:29:4c:6b:7b:ae:c1:b6:b4:06:62:ef:d4:99:35:36:bb:
         48:cd:8f:3e:9d:e0:b7:37:3e:f7:d3:16:58:22:e9:51:02:d6:
         56:e9:ad:a6:37:9e:38:8b:06:94:2d:e6:3b:da:8c:6f:04:89:
         2b:ac:04:f0:a4:94:d9:7c:2c:4c:83:15:ad:19:fe:93:93:92:
         8e:b8:77:1c:a6:01
-----BEGIN CERTIFICATE-----
MIIERTCCAq2gAwIBAgIJAPNALxQyH4PPMA0GCSqGSIb3DQEBCwUAMCgxJjAkBgNVBAMTHWtpY2tib3gtYXBpLXByZS1wcm9kLnNjYXBwLmlvMB4XDTE5MDkyNjEwNTUwNVoXDTIyMDkyNjEwNTUwNVowKDEmMCQGA1UEAxMda2lja2JveC1hcGktcHJlLXByb2Quc2NhcHAuaW8wggGiMA0GCSqGSIb3DQEBAQUAA4IBjwAwggGKAoIBgQDOoeHWwUhjyzeKYrPL01dK5Gmkwloa2jGwNPJ58pcMmOyK5iizOm78HtLVHQsXXzzrtHcfb/PzqrQTu/zCxuY7hyIe1jXeeVCH37ohyt3sVP8/LkKSGIyXz7J2p7YskoxjiOwz9bfnEzvLRAs36d9RpWjYfTa5QzV9zuE2Nmtz8aS2ta1sCeFM3Lc0UqYcLTOdsKwM2T+dC8+ZnkhJJa6rQOwZWrQ3iEs7LWZjgYtscv2OgTaCTZgs3ZmAC9sp7HiC+XKy1F1FQ5Do+qZuP6gG6ttKkE0y+e2nBsg0gRcIZeUjQaBWrjbNzLI5U6bJ1KnUxNMv13pACk60emZ44AJ1jZ7Knl/DBzHekVTvaW0Og0kfhPMm7tVIm8s2PYK2/heSOZC/ECMmljKmWHcNFQH4+5AeDCWYPT1/YRru3ZSNfgclO5aPHpYJQGFpUO1nRteu3dY0PLdkfwo2hrNesWbtm+RdC9Itv2rdpmHCzQcwSYTSxwoSOvebatV1omswh3kCAwEAAaNyMHAwTwYDVR0RBEgwRoIda2lja2JveC1hcGktcHJlLXByb2Quc2NhcHAuaW+GJWh0dHBzOi8va2lja2JveC1hcGktcHJlLXByb2Quc2NhcHAuaW8wHQYDVR0OBBYEFF5ztdPBl5+mCrY4bspM1nwlrisGMA0GCSqGSIb3DQEBCwUAA4IBgQAD+hKj30JqBcyXxf7vWOWuypk0HY2dk1eNeqo0XvgfKV+8wxEc0nsTRMEMFSxBVW06l1nOzK/d6yNt5B4H/qr3O+LOsivLXJq667Lo789JKFAubXpaIWhpWkiChHI29oE72JC0wLgS3RPQvgCKzzQrG8wPkJ2RniguTJWrueUGyA929BX0tA8r5zbX9qNNe1HJXbUpfIWZRCc3SBYHVfvcZaXpidpFicYapoEbOuBr6mTq63mQZ7d9fJxk07z+TBc7VrNCDud71vm/ADaEDElbWdv2jGCqwtoUBeBmkxgKyPm0f74FJGlMo9Xf0RiT203uyj1sJ92NiSK2uyNaZeFOUAf32kS7ygyID1Lk/fqwPgVZae21FrEW7CPNJjI1VAxXEbGQ4Hrf2it7vStP4jSynqbkhxUkOzP6WqxwxTzPkrRT1eT5t7aE813PhSdopC9+VaENGcNs8QlEGGMBtsZVXAYlcWEan5CsAVilIyciqVM/db5IXg2ePMO4sA7ViMg=
-----END CERTIFICATE-----
